target datalayout = "e-m:e-p270:32:32-p271:32:32-p272:64:64-i64:64-i128:128-f80:128-n8:16:32:64-S128"
target triple = "x86_64-pc-linux-gnu"

%struct.HeapScanDescData = type { %struct.TableScanDescData, i32, i32, i32, i8, i16, i32, i32, ptr, %struct.HeapTupleData, ptr, i32, i32, ptr, i32, i32, [291 x i16] }
%struct.TableScanDescData = type { ptr, ptr, i32, ptr, %union.anon, i32, ptr }
%union.anon = type { %struct.TBMIterator }
%struct.TBMIterator = type { i8, %union.anon.0 }
%union.anon.0 = type { ptr }
%struct.HeapTupleData = type { i32, %struct.ItemPointerData, i32, ptr }
%struct.ItemPointerData = type { %struct.BlockIdData, i16 }
%struct.BlockIdData = type { i16, i16 }
%struct.BitmapHeapScanDescData = type { %struct.HeapScanDescData, i32, i32 }

; Function Attrs: inlinehint nounwind uwtable
define internal zeroext i1 @BufferIsValid(i32 noundef %0) #3 {
  %2 = alloca i32, align 4
  store i32 %0, ptr %2, align 4
  %3 = load i32, ptr %2, align 4
  %4 = icmp ne i32 %3, 0
  ret i1 %4
}

; Function Attrs: nounwind uwtable
define dso_local void @heap_endscan(ptr noundef %0) #0 {
  %2 = alloca ptr, align 8
  %3 = alloca ptr, align 8
  %4 = alloca ptr, align 8
  store ptr %0, ptr %2, align 8
  call void @llvm.lifetime.start.p0(i64 8, ptr %3) #10
  %5 = load ptr, ptr %2, align 8
  store ptr %5, ptr %3, align 8
  %6 = load ptr, ptr %3, align 8
  %7 = getelementptr inbounds nuw %struct.HeapScanDescData, ptr %6, i32 0, i32 7
  %8 = load i32, ptr %7, align 4
  %9 = call zeroext i1 @BufferIsValid(i32 noundef %8)
  br i1 %9, label %10, label %14

10:                                               ; preds = %1
  %11 = load ptr, ptr %3, align 8
  %12 = getelementptr inbounds nuw %struct.HeapScanDescData, ptr %11, i32 0, i32 7
  %13 = load i32, ptr %12, align 4
  call void @ReleaseBuffer(i32 noundef %13)
  br label %14

14:                                               ; preds = %10, %1
  %15 = load ptr, ptr %3, align 8
  %16 = getelementptr inbounds nuw %struct.HeapScanDescData, ptr %15, i32 0, i32 0
  %17 = getelementptr inbounds nuw %struct.TableScanDescData, ptr %16, i32 0, i32 5
  %18 = load i32, ptr %17, align 8
  %19 = and i32 %18, 2
  %20 = icmp ne i32 %19, 0
  br i1 %20, label %21, label %34

21:                                               ; preds = %14
  call void @llvm.lifetime.start.p0(i64 8, ptr %4) #10
  %22 = load ptr, ptr %2, align 8
  store ptr %22, ptr %4, align 8
  %23 = load ptr, ptr %4, align 8
  %24 = getelementptr inbounds nuw %struct.BitmapHeapScanDescData, ptr %23, i32 0, i32 2
  store i32 0, ptr %24, align 4
  %25 = load ptr, ptr %4, align 8
  %26 = getelementptr inbounds nuw %struct.BitmapHeapScanDescData, ptr %25, i32 0, i32 1
  %27 = load i32, ptr %26, align 8
  %28 = call zeroext i1 @BufferIsValid(i32 noundef %27)
  br i1 %28, label %29, label %33

29:                                               ; preds = %21
  %30 = load ptr, ptr %4, align 8
  %31 = getelementptr inbounds nuw %struct.BitmapHeapScanDescData, ptr %30, i32 0, i32 1
  %32 = load i32, ptr %31, align 8
  call void @ReleaseBuffer(i32 noundef %32)
  br label %33

33:                                               ; preds = %29, %21
  call void @llvm.lifetime.end.p0(i64 8, ptr %4) #10
  br label %34

34:                                               ; preds = %33, %14
  %35 = load ptr, ptr %3, align 8
  %36 = getelementptr inbounds nuw %struct.HeapScanDescData, ptr %35, i32 0, i32 10
  %37 = load ptr, ptr %36, align 8
  %38 = icmp ne ptr %37, null
  br i1 %38, label %39, label %43

39:                                               ; preds = %34
  %40 = load ptr, ptr %3, align 8
  %41 = getelementptr inbounds nuw %struct.HeapScanDescData, ptr %40, i32 0, i32 10
  %42 = load ptr, ptr %41, align 8
  call void @read_stream_end(ptr noundef %42)
  br label %43

43:                                               ; preds = %39, %34
  %44 = load ptr, ptr %3, align 8
  %45 = getelementptr inbounds nuw %struct.HeapScanDescData, ptr %44, i32 0, i32 0
  %46 = getelementptr inbounds nuw %struct.TableScanDescData, ptr %45, i32 0, i32 0
  %47 = load ptr, ptr %46, align 8
  call void @RelationDecrementReferenceCount(ptr noundef %47)
  %48 = load ptr, ptr %3, align 8
  %49 = getelementptr inbounds nuw %struct.HeapScanDescData, ptr %48, i32 0, i32 0
  %50 = getelementptr inbounds nuw %struct.TableScanDescData, ptr %49, i32 0, i32 3
  %51 = load ptr, ptr %50, align 8
  %52 = icmp ne ptr %51, null
  br i1 %52, label %53, label %58

53:                                               ; preds = %43
  %54 = load ptr, ptr %3, align 8
  %55 = getelementptr inbounds nuw %struct.HeapScanDescData, ptr %54, i32 0, i32 0
  %56 = getelementptr inbounds nuw %struct.TableScanDescData, ptr %55, i32 0, i32 3
  %57 = load ptr, ptr %56, align 8
  call void @pfree(ptr noundef %57)
  br label %58

58:                                               ; preds = %53, %43
  %59 = load ptr, ptr %3, align 8
  %60 = getelementptr inbounds nuw %struct.HeapScanDescData, ptr %59, i32 0, i32 8
  %61 = load ptr, ptr %60, align 8
  %62 = icmp ne ptr %61, null
  br i1 %62, label %63, label %67

63:                                               ; preds = %58
  %64 = load ptr, ptr %3, align 8
  %65 = getelementptr inbounds nuw %struct.HeapScanDescData, ptr %64, i32 0, i32 8
  %66 = load ptr, ptr %65, align 8
  call void @FreeAccessStrategy(ptr noundef %66)
  br label %67

67:                                               ; preds = %63, %58
  %68 = load ptr, ptr %3, align 8
  %69 = getelementptr inbounds nuw %struct.HeapScanDescData, ptr %68, i32 0, i32 13
  %70 = load ptr, ptr %69, align 8
  %71 = icmp ne ptr %70, null
  br i1 %71, label %72, label %76

72:                                               ; preds = %67
  %73 = load ptr, ptr %3, align 8
  %74 = getelementptr inbounds nuw %struct.HeapScanDescData, ptr %73, i32 0, i32 13
  %75 = load ptr, ptr %74, align 8
  call void @pfree(ptr noundef %75)
  br label %76

76:                                               ; preds = %72, %67
  %77 = load ptr, ptr %3, align 8
  %78 = getelementptr inbounds nuw %struct.HeapScanDescData, ptr %77, i32 0, i32 0
  %79 = getelementptr inbounds nuw %struct.TableScanDescData, ptr %78, i32 0, i32 5
  %80 = load i32, ptr %79, align 8
  %81 = and i32 %80, 512
  %82 = icmp ne i32 %81, 0
  br i1 %82, label %83, label %88

83:                                               ; preds = %76
  %84 = load ptr, ptr %3, align 8
  %85 = getelementptr inbounds nuw %struct.HeapScanDescData, ptr %84, i32 0, i32 0
  %86 = getelementptr inbounds nuw %struct.TableScanDescData, ptr %85, i32 0, i32 1
  %87 = load ptr, ptr %86, align 8
  call void @UnregisterSnapshot(ptr noundef %87)
  br label %88

88:                                               ; preds = %83, %76
  %89 = load ptr, ptr %3, align 8
  call void @pfree(ptr noundef %89)
  call void @llvm.lifetime.end.p0(i64 8, ptr %3) #10
  ret void
}