; Function Attrs: nounwind uwtable
define dso_local void @heap_endscan(ptr noundef %0) local_unnamed_addr #2 {
  %2 = getelementptr inbounds nuw i8, ptr %0, i64 84
  %3 = load i32, ptr %2, align 4
  %.not28 = icmp eq i32 %3, 0
  br i1 %.not28, label %5, label %4

4:                                                ; preds = %1
  tail call void @ReleaseBuffer(i32 noundef %3) #13
  br label %5

5:                                                ; preds = %4, %1
  %6 = getelementptr inbounds nuw i8, ptr %0, i64 48
  %7 = load i32, ptr %6, align 8
  %8 = and i32 %7, 2
  %.not = icmp eq i32 %8, 0
  br i1 %.not, label %14, label %9

9:                                                ; preds = %5
  %10 = getelementptr inbounds nuw i8, ptr %0, i64 740
  store i32 0, ptr %10, align 4
  %11 = getelementptr inbounds nuw i8, ptr %0, i64 736
  %12 = load i32, ptr %11, align 8
  %.not29 = icmp eq i32 %12, 0
  br i1 %.not29, label %14, label %13

13:                                               ; preds = %9
  tail call void @ReleaseBuffer(i32 noundef %12) #13
  br label %14

14:                                               ; preds = %9, %13, %5
  %15 = getelementptr inbounds nuw i8, ptr %0, i64 120
  %16 = load ptr, ptr %15, align 8
  %.not23 = icmp eq ptr %16, null
  br i1 %.not23, label %18, label %17

17:                                               ; preds = %14
  tail call void @read_stream_end(ptr noundef nonnull %16) #13
  br label %18

18:                                               ; preds = %17, %14
  %19 = load ptr, ptr %0, align 8
  tail call void @RelationDecrementReferenceCount(ptr noundef %19) #13
  %20 = getelementptr inbounds nuw i8, ptr %0, i64 24
  %21 = load ptr, ptr %20, align 8
  %.not24 = icmp eq ptr %21, null
  br i1 %.not24, label %23, label %22

22:                                               ; preds = %18
  tail call void @pfree(ptr noundef nonnull %21) #13
  br label %23

23:                                               ; preds = %22, %18
  %24 = getelementptr inbounds nuw i8, ptr %0, i64 88
  %25 = load ptr, ptr %24, align 8
  %.not25 = icmp eq ptr %25, null
  br i1 %.not25, label %27, label %26

26:                                               ; preds = %23
  tail call void @FreeAccessStrategy(ptr noundef nonnull %25) #13
  br label %27

27:                                               ; preds = %26, %23
  %28 = getelementptr inbounds nuw i8, ptr %0, i64 136
  %29 = load ptr, ptr %28, align 8
  %.not26 = icmp eq ptr %29, null
  br i1 %.not26, label %31, label %30

30:                                               ; preds = %27
  tail call void @pfree(ptr noundef nonnull %29) #13
  br label %31

31:                                               ; preds = %30, %27
  %32 = load i32, ptr %6, align 8
  %33 = and i32 %32, 512
  %.not27 = icmp eq i32 %33, 0
  br i1 %.not27, label %37, label %34

34:                                               ; preds = %31
  %35 = getelementptr inbounds nuw i8, ptr %0, i64 8
  %36 = load ptr, ptr %35, align 8
  tail call void @UnregisterSnapshot(ptr noundef %36) #13
  br label %37

37:                                               ; preds = %34, %31
  tail call void @pfree(ptr noundef nonnull %0) #13
  ret void
}